target datalayout = "e-m:e-p270:32:32-p271:32:32-p272:64:64-i64:64-i128:128-f80:128-n8:16:32:64-S128"
target triple = "x86_64-pc-linux-gnu"

%struct.mcsheng = type { i16, i32, i16, i16, i32, i32, i32, i16, i16, i16, i16, i16, i8, i8, i8, [256 x i8], i32, i32, [256 x <2 x i64>] }
%struct.mstate_aux = type { i32, i32, i16, i32 }
%struct.report_list = type { i32, [0 x i32] }

; Function Attrs: alwaysinline nounwind uwtable
define internal signext i8 @doComplexReport(ptr noundef %0, ptr noundef %1, ptr noundef %2, i32 noundef %3, i64 noundef %4, i8 noundef signext %5, ptr noundef %6, ptr noundef %7) #2 {
  %9 = alloca i8, align 1
  %10 = alloca ptr, align 8
  %11 = alloca ptr, align 8
  %12 = alloca ptr, align 8
  %13 = alloca i32, align 4
  %14 = alloca i64, align 8
  %15 = alloca i8, align 1
  %16 = alloca ptr, align 8
  %17 = alloca ptr, align 8
  %18 = alloca ptr, align 8
  %19 = alloca i64, align 8
  %20 = alloca ptr, align 8
  %21 = alloca i32, align 4
  %22 = alloca i32, align 4
  %23 = alloca i32, align 4
  store ptr %0, ptr %10, align 8
  store ptr %1, ptr %11, align 8
  store ptr %2, ptr %12, align 8
  store i32 %3, ptr %13, align 4
  store i64 %4, ptr %14, align 8
  store i8 %5, ptr %15, align 1
  store ptr %6, ptr %16, align 8
  store ptr %7, ptr %17, align 8
  br label %24

24:                                               ; preds = %8
  br label %25

25:                                               ; preds = %24
  %26 = load i8, ptr %15, align 1
  %27 = icmp ne i8 %26, 0
  br i1 %27, label %43, label %28

28:                                               ; preds = %25
  %29 = load i32, ptr %13, align 4
  %30 = load ptr, ptr %16, align 8
  %31 = load i32, ptr %30, align 4
  %32 = icmp eq i32 %29, %31
  br i1 %32, label %33, label %43

33:                                               ; preds = %28
  %34 = load ptr, ptr %10, align 8
  %35 = load i64, ptr %14, align 8
  %36 = load ptr, ptr %17, align 8
  %37 = load i32, ptr %36, align 4
  %38 = load ptr, ptr %11, align 8
  %39 = call i32 %34(i64 noundef 0, i64 noundef %35, i32 noundef %37, ptr noundef %38)
  %40 = icmp eq i32 %39, 0
  br i1 %40, label %41, label %42

41:                                               ; preds = %33
  store i8 0, ptr %9, align 1
  br label %128

42:                                               ; preds = %33
  store i8 1, ptr %9, align 1
  br label %128

43:                                               ; preds = %28, %25
  call void @llvm.lifetime.start.p0(i64 8, ptr %18) #9
  %44 = load ptr, ptr %12, align 8
  %45 = load i32, ptr %13, align 4
  %46 = call ptr @get_aux(ptr noundef %44, i32 noundef %45)
  store ptr %46, ptr %18, align 8
  call void @llvm.lifetime.start.p0(i64 8, ptr %19) #9
  %47 = load i8, ptr %15, align 1
  %48 = sext i8 %47 to i32
  %49 = icmp ne i32 %48, 0
  br i1 %49, label %50, label %54

50:                                               ; preds = %43
  %51 = load ptr, ptr %18, align 8
  %52 = getelementptr inbounds nuw %struct.mstate_aux, ptr %51, i32 0, i32 1
  %53 = load i32, ptr %52, align 4
  br label %58

54:                                               ; preds = %43
  %55 = load ptr, ptr %18, align 8
  %56 = getelementptr inbounds nuw %struct.mstate_aux, ptr %55, i32 0, i32 0
  %57 = load i32, ptr %56, align 4
  br label %58

58:                                               ; preds = %54, %50
  %59 = phi i32 [ %53, %50 ], [ %57, %54 ]
  %60 = zext i32 %59 to i64
  store i64 %60, ptr %19, align 8
  call void @llvm.lifetime.start.p0(i64 8, ptr %20) #9
  %61 = load ptr, ptr %12, align 8
  %62 = load i64, ptr %19, align 8
  %63 = getelementptr inbounds nuw i8, ptr %61, i64 %62
  %64 = getelementptr inbounds i8, ptr %63, i64 -64
  store ptr %64, ptr %20, align 8
  br label %65

65:                                               ; preds = %58
  br label %66

66:                                               ; preds = %65
  br label %67

67:                                               ; preds = %66
  call void @llvm.lifetime.start.p0(i64 4, ptr %21) #9
  %68 = load ptr, ptr %20, align 8
  %69 = getelementptr inbounds nuw %struct.report_list, ptr %68, i32 0, i32 0
  %70 = load i32, ptr %69, align 4
  store i32 %70, ptr %21, align 4
  %71 = load i8, ptr %15, align 1
  %72 = icmp ne i8 %71, 0
  br i1 %72, label %98, label %73

73:                                               ; preds = %67
  %74 = load i32, ptr %21, align 4
  %75 = icmp eq i32 %74, 1
  br i1 %75, label %76, label %98

76:                                               ; preds = %73
  %77 = load i32, ptr %13, align 4
  %78 = load ptr, ptr %16, align 8
  store i32 %77, ptr %78, align 4
  %79 = load ptr, ptr %20, align 8
  %80 = getelementptr inbounds nuw %struct.report_list, ptr %79, i32 0, i32 1
  %81 = getelementptr inbounds [0 x i32], ptr %80, i64 0, i64 0
  %82 = load i32, ptr %81, align 4
  %83 = load ptr, ptr %17, align 8
  store i32 %82, ptr %83, align 4
  br label %84

84:                                               ; preds = %76
  br label %85

85:                                               ; preds = %84
  br label %86

86:                                               ; preds = %85
  %87 = load ptr, ptr %10, align 8
  %88 = load i64, ptr %14, align 8
  %89 = load ptr, ptr %20, align 8
  %90 = getelementptr inbounds nuw %struct.report_list, ptr %89, i32 0, i32 1
  %91 = getelementptr inbounds [0 x i32], ptr %90, i64 0, i64 0
  %92 = load i32, ptr %91, align 4
  %93 = load ptr, ptr %11, align 8
  %94 = call i32 %87(i64 noundef 0, i64 noundef %88, i32 noundef %92, ptr noundef %93)
  %95 = icmp eq i32 %94, 0
  br i1 %95, label %96, label %97

96:                                               ; preds = %86
  store i8 0, ptr %9, align 1
  store i32 1, ptr %22, align 4
  br label %127

97:                                               ; preds = %86
  store i8 1, ptr %9, align 1
  store i32 1, ptr %22, align 4
  br label %127

98:                                               ; preds = %73, %67
  call void @llvm.lifetime.start.p0(i64 4, ptr %23) #9
  store i32 0, ptr %23, align 4
  br label %99

99:                                               ; preds = %121, %98
  %100 = load i32, ptr %23, align 4
  %101 = load i32, ptr %21, align 4
  %102 = icmp ult i32 %100, %101
  br i1 %102, label %104, label %103

103:                                              ; preds = %99
  store i32 8, ptr %22, align 4
  br label %124

104:                                              ; preds = %99
  br label %105

105:                                              ; preds = %104
  br label %106

106:                                              ; preds = %105
  br label %107

107:                                              ; preds = %106
  %108 = load ptr, ptr %10, align 8
  %109 = load i64, ptr %14, align 8
  %110 = load ptr, ptr %20, align 8
  %111 = getelementptr inbounds nuw %struct.report_list, ptr %110, i32 0, i32 1
  %112 = load i32, ptr %23, align 4
  %113 = zext i32 %112 to i64
  %114 = getelementptr inbounds nuw [0 x i32], ptr %111, i64 0, i64 %113
  %115 = load i32, ptr %114, align 4
  %116 = load ptr, ptr %11, align 8
  %117 = call i32 %108(i64 noundef 0, i64 noundef %109, i32 noundef %115, ptr noundef %116)
  %118 = icmp eq i32 %117, 0
  br i1 %118, label %119, label %120

119:                                              ; preds = %107
  store i8 0, ptr %9, align 1
  store i32 1, ptr %22, align 4
  br label %124

120:                                              ; preds = %107
  br label %121

121:                                              ; preds = %120
  %122 = load i32, ptr %23, align 4
  %123 = add i32 %122, 1
  store i32 %123, ptr %23, align 4
  br label %99

124:                                              ; preds = %119, %103
  call void @llvm.lifetime.end.p0(i64 4, ptr %23) #9
  %125 = load i32, ptr %22, align 4
  switch i32 %125, label %127 [
    i32 8, label %126
  ]

126:                                              ; preds = %124
  store i8 1, ptr %9, align 1
  store i32 1, ptr %22, align 4
  br label %127

127:                                              ; preds = %126, %124, %97, %96
  call void @llvm.lifetime.end.p0(i64 4, ptr %21) #9
  call void @llvm.lifetime.end.p0(i64 8, ptr %20) #9
  call void @llvm.lifetime.end.p0(i64 8, ptr %19) #9
  call void @llvm.lifetime.end.p0(i64 8, ptr %18) #9
  br label %128

128:                                              ; preds = %127, %42, %41
  %129 = load i8, ptr %9, align 1
  ret i8 %129
}

; Function Attrs: alwaysinline nounwind uwtable
define internal ptr @get_aux(ptr noundef %0, i32 noundef %1) #2 {
  %3 = alloca ptr, align 8
  %4 = alloca i32, align 4
  %5 = alloca ptr, align 8
  %6 = alloca ptr, align 8
  store ptr %0, ptr %3, align 8
  store i32 %1, ptr %4, align 4
  call void @llvm.lifetime.start.p0(i64 8, ptr %5) #9
  %7 = load ptr, ptr %3, align 8
  %8 = getelementptr inbounds i8, ptr %7, i64 -64
  store ptr %8, ptr %5, align 8
  call void @llvm.lifetime.start.p0(i64 8, ptr %6) #9
  %9 = load i32, ptr %4, align 4
  %10 = load ptr, ptr %5, align 8
  %11 = load ptr, ptr %3, align 8
  %12 = getelementptr inbounds nuw %struct.mcsheng, ptr %11, i32 0, i32 4
  %13 = load i32, ptr %12, align 4
  %14 = zext i32 %13 to i64
  %15 = getelementptr inbounds nuw i8, ptr %10, i64 %14
  %16 = zext i32 %9 to i64
  %17 = getelementptr inbounds nuw %struct.mstate_aux, ptr %15, i64 %16
  store ptr %17, ptr %6, align 8
  %18 = load ptr, ptr %6, align 8
  call void @llvm.lifetime.end.p0(i64 8, ptr %6) #9
  call void @llvm.lifetime.end.p0(i64 8, ptr %5) #9
  ret ptr %18
}

; Function Attrs: alwaysinline nounwind uwtable
define internal signext i8 @mcshengCheckEOD(ptr noundef %0, i32 noundef %1, i64 noundef %2, ptr noundef %3, ptr noundef %4) #2 {
  %6 = alloca i8, align 1
  %7 = alloca ptr, align 8
  %8 = alloca i32, align 4
  %9 = alloca i64, align 8
  %10 = alloca ptr, align 8
  %11 = alloca ptr, align 8
  %12 = alloca ptr, align 8
  %13 = alloca ptr, align 8
  %14 = alloca i32, align 4
  store ptr %0, ptr %7, align 8
  store i32 %1, ptr %8, align 4
  store i64 %2, ptr %9, align 8
  store ptr %3, ptr %10, align 8
  store ptr %4, ptr %11, align 8
  call void @llvm.lifetime.start.p0(i64 8, ptr %12) #9
  %15 = load ptr, ptr %7, align 8
  %16 = getelementptr inbounds nuw i8, ptr %15, i64 64
  store ptr %16, ptr %12, align 8
  call void @llvm.lifetime.start.p0(i64 8, ptr %13) #9
  %17 = load ptr, ptr %12, align 8
  %18 = load i32, ptr %8, align 4
  %19 = call ptr @get_aux(ptr noundef %17, i32 noundef %18)
  store ptr %19, ptr %13, align 8
  %20 = load ptr, ptr %13, align 8
  %21 = getelementptr inbounds nuw %struct.mstate_aux, ptr %20, i32 0, i32 1
  %22 = load i32, ptr %21, align 4
  %23 = icmp ne i32 %22, 0
  br i1 %23, label %25, label %24

24:                                               ; preds = %5
  store i8 1, ptr %6, align 1
  store i32 1, ptr %14, align 4
  br label %32

25:                                               ; preds = %5
  %26 = load ptr, ptr %10, align 8
  %27 = load ptr, ptr %11, align 8
  %28 = load ptr, ptr %12, align 8
  %29 = load i32, ptr %8, align 4
  %30 = load i64, ptr %9, align 8
  %31 = call signext i8 @doComplexReport(ptr noundef %26, ptr noundef %27, ptr noundef %28, i32 noundef %29, i64 noundef %30, i8 noundef signext 1, ptr noundef null, ptr noundef null)
  store i8 %31, ptr %6, align 1
  store i32 1, ptr %14, align 4
  br label %32

32:                                               ; preds = %25, %24
  call void @llvm.lifetime.end.p0(i64 8, ptr %13) #9
  call void @llvm.lifetime.end.p0(i64 8, ptr %12) #9
  %33 = load i8, ptr %6, align 1
  ret i8 %33
}

; Function Attrs: nounwind uwtable
define hidden signext i8 @nfaExecMcSheng16_testEOD(ptr noundef %0, ptr noundef %1, ptr noundef %2, i64 noundef %3, ptr noundef %4, ptr noundef %5) #0 {
  %7 = alloca ptr, align 8
  %8 = alloca ptr, align 8
  %9 = alloca ptr, align 8
  %10 = alloca i64, align 8
  %11 = alloca ptr, align 8
  %12 = alloca ptr, align 8
  store ptr %0, ptr %7, align 8
  store ptr %1, ptr %8, align 8
  store ptr %2, ptr %9, align 8
  store i64 %3, ptr %10, align 8
  store ptr %4, ptr %11, align 8
  store ptr %5, ptr %12, align 8
  %13 = load ptr, ptr %7, align 8
  %14 = load ptr, ptr %8, align 8
  %15 = load i16, ptr %14, align 2
  %16 = zext i16 %15 to i32
  %17 = load i64, ptr %10, align 8
  %18 = load ptr, ptr %11, align 8
  %19 = load ptr, ptr %12, align 8
  %20 = call signext i8 @mcshengCheckEOD(ptr noundef %13, i32 noundef %16, i64 noundef %17, ptr noundef %18, ptr noundef %19)
  ret i8 %20
}